target datalayout = "e-m:e-p270:32:32-p271:32:32-p272:64:64-i64:64-i128:128-f80:128-n8:16:32:64-S128"
target triple = "x86_64-pc-linux-gnu"

%struct.SDL_BlitInfo = type { ptr, ptr, i32, i32, i32, i32, ptr, ptr, i32, i32, i32, i32, ptr, ptr, ptr, ptr, ptr, ptr, i32, i32, i8, i8, i8, i8 }

; Function Attrs: nounwind uwtable
define internal void @BlitARGBto555PixelAlpha(ptr noundef %0) #0 {
  %2 = alloca ptr, align 8
  %3 = alloca i32, align 4
  %4 = alloca i32, align 4
  %5 = alloca ptr, align 8
  %6 = alloca i32, align 4
  %7 = alloca ptr, align 8
  %8 = alloca i32, align 4
  %9 = alloca i32, align 4
  %10 = alloca i32, align 4
  %11 = alloca i32, align 4
  %12 = alloca i32, align 4
  %13 = alloca i32, align 4
  %14 = alloca i32, align 4
  %15 = alloca i32, align 4
  %16 = alloca i32, align 4
  %17 = alloca i32, align 4
  %18 = alloca i32, align 4
  %19 = alloca i32, align 4
  %20 = alloca i32, align 4
  %21 = alloca i32, align 4
  store ptr %0, ptr %2, align 8
  call void @llvm.lifetime.start.p0(i64 4, ptr %3) #3
  %22 = load ptr, ptr %2, align 8
  %23 = getelementptr inbounds nuw %struct.SDL_BlitInfo, ptr %22, i32 0, i32 8
  %24 = load i32, ptr %23, align 8
  store i32 %24, ptr %3, align 4
  call void @llvm.lifetime.start.p0(i64 4, ptr %4) #3
  %25 = load ptr, ptr %2, align 8
  %26 = getelementptr inbounds nuw %struct.SDL_BlitInfo, ptr %25, i32 0, i32 9
  %27 = load i32, ptr %26, align 4
  store i32 %27, ptr %4, align 4
  call void @llvm.lifetime.start.p0(i64 8, ptr %5) #3
  %28 = load ptr, ptr %2, align 8
  %29 = getelementptr inbounds nuw %struct.SDL_BlitInfo, ptr %28, i32 0, i32 1
  %30 = load ptr, ptr %29, align 8
  store ptr %30, ptr %5, align 8
  call void @llvm.lifetime.start.p0(i64 4, ptr %6) #3
  %31 = load ptr, ptr %2, align 8
  %32 = getelementptr inbounds nuw %struct.SDL_BlitInfo, ptr %31, i32 0, i32 5
  %33 = load i32, ptr %32, align 4
  %34 = ashr i32 %33, 2
  store i32 %34, ptr %6, align 4
  call void @llvm.lifetime.start.p0(i64 8, ptr %7) #3
  %35 = load ptr, ptr %2, align 8
  %36 = getelementptr inbounds nuw %struct.SDL_BlitInfo, ptr %35, i32 0, i32 7
  %37 = load ptr, ptr %36, align 8
  store ptr %37, ptr %7, align 8
  call void @llvm.lifetime.start.p0(i64 4, ptr %8) #3
  %38 = load ptr, ptr %2, align 8
  %39 = getelementptr inbounds nuw %struct.SDL_BlitInfo, ptr %38, i32 0, i32 11
  %40 = load i32, ptr %39, align 4
  %41 = ashr i32 %40, 1
  store i32 %41, ptr %8, align 4
  br label %42

42:                                               ; preds = %322, %1
  %43 = load i32, ptr %4, align 4
  %44 = add nsw i32 %43, -1
  store i32 %44, ptr %4, align 4
  %45 = icmp ne i32 %43, 0
  br i1 %45, label %46, label %331

46:                                               ; preds = %42
  call void @llvm.lifetime.start.p0(i64 4, ptr %9) #3
  %47 = load i32, ptr %3, align 4
  %48 = add nsw i32 %47, 3
  %49 = sdiv i32 %48, 4
  store i32 %49, ptr %9, align 4
  %50 = load i32, ptr %3, align 4
  %51 = and i32 %50, 3
  switch i32 %51, label %322 [
    i32 0, label %52
    i32 3, label %119
    i32 2, label %185
    i32 1, label %251
  ]

52:                                               ; preds = %46
  br label %53

53:                                               ; preds = %317, %52
  call void @llvm.lifetime.start.p0(i64 4, ptr %10) #3
  call void @llvm.lifetime.start.p0(i64 4, ptr %11) #3
  %54 = load ptr, ptr %5, align 8
  %55 = load i32, ptr %54, align 4
  store i32 %55, ptr %11, align 4
  %56 = load i32, ptr %11, align 4
  %57 = lshr i32 %56, 27
  store i32 %57, ptr %10, align 4
  %58 = load i32, ptr %10, align 4
  %59 = icmp ne i32 %58, 0
  br i1 %59, label %60, label %114

60:                                               ; preds = %53
  %61 = load i32, ptr %10, align 4
  %62 = icmp eq i32 %61, 31
  br i1 %62, label %63, label %77

63:                                               ; preds = %60
  %64 = load i32, ptr %11, align 4
  %65 = lshr i32 %64, 9
  %66 = and i32 %65, 31744
  %67 = load i32, ptr %11, align 4
  %68 = lshr i32 %67, 6
  %69 = and i32 %68, 992
  %70 = add i32 %66, %69
  %71 = load i32, ptr %11, align 4
  %72 = lshr i32 %71, 3
  %73 = and i32 %72, 31
  %74 = add i32 %70, %73
  %75 = trunc i32 %74 to i16
  %76 = load ptr, ptr %7, align 8
  store i16 %75, ptr %76, align 2
  br label %113

77:                                               ; preds = %60
  call void @llvm.lifetime.start.p0(i64 4, ptr %12) #3
  %78 = load ptr, ptr %7, align 8
  %79 = load i16, ptr %78, align 2
  %80 = zext i16 %79 to i32
  store i32 %80, ptr %12, align 4
  %81 = load i32, ptr %11, align 4
  %82 = and i32 %81, 63488
  %83 = shl i32 %82, 10
  %84 = load i32, ptr %11, align 4
  %85 = lshr i32 %84, 9
  %86 = and i32 %85, 31744
  %87 = add i32 %83, %86
  %88 = load i32, ptr %11, align 4
  %89 = lshr i32 %88, 3
  %90 = and i32 %89, 31
  %91 = add i32 %87, %90
  store i32 %91, ptr %11, align 4
  %92 = load i32, ptr %12, align 4
  %93 = load i32, ptr %12, align 4
  %94 = shl i32 %93, 16
  %95 = or i32 %92, %94
  %96 = and i32 %95, 65043487
  store i32 %96, ptr %12, align 4
  %97 = load i32, ptr %11, align 4
  %98 = load i32, ptr %12, align 4
  %99 = sub i32 %97, %98
  %100 = load i32, ptr %10, align 4
  %101 = mul i32 %99, %100
  %102 = lshr i32 %101, 5
  %103 = load i32, ptr %12, align 4
  %104 = add i32 %103, %102
  store i32 %104, ptr %12, align 4
  %105 = load i32, ptr %12, align 4
  %106 = and i32 %105, 65043487
  store i32 %106, ptr %12, align 4
  %107 = load i32, ptr %12, align 4
  %108 = load i32, ptr %12, align 4
  %109 = lshr i32 %108, 16
  %110 = or i32 %107, %109
  %111 = trunc i32 %110 to i16
  %112 = load ptr, ptr %7, align 8
  store i16 %111, ptr %112, align 2
  call void @llvm.lifetime.end.p0(i64 4, ptr %12) #3
  br label %113

113:                                              ; preds = %77, %63
  br label %114

114:                                              ; preds = %113, %53
  %115 = load ptr, ptr %5, align 8
  %116 = getelementptr inbounds nuw i32, ptr %115, i32 1
  store ptr %116, ptr %5, align 8
  %117 = load ptr, ptr %7, align 8
  %118 = getelementptr inbounds nuw i16, ptr %117, i32 1
  store ptr %118, ptr %7, align 8
  call void @llvm.lifetime.end.p0(i64 4, ptr %11) #3
  call void @llvm.lifetime.end.p0(i64 4, ptr %10) #3
  br label %119

119:                                              ; preds = %46, %114
  call void @llvm.lifetime.start.p0(i64 4, ptr %13) #3
  call void @llvm.lifetime.start.p0(i64 4, ptr %14) #3
  %120 = load ptr, ptr %5, align 8
  %121 = load i32, ptr %120, align 4
  store i32 %121, ptr %14, align 4
  %122 = load i32, ptr %14, align 4
  %123 = lshr i32 %122, 27
  store i32 %123, ptr %13, align 4
  %124 = load i32, ptr %13, align 4
  %125 = icmp ne i32 %124, 0
  br i1 %125, label %126, label %180

126:                                              ; preds = %119
  %127 = load i32, ptr %13, align 4
  %128 = icmp eq i32 %127, 31
  br i1 %128, label %129, label %143

129:                                              ; preds = %126
  %130 = load i32, ptr %14, align 4
  %131 = lshr i32 %130, 9
  %132 = and i32 %131, 31744
  %133 = load i32, ptr %14, align 4
  %134 = lshr i32 %133, 6
  %135 = and i32 %134, 992
  %136 = add i32 %132, %135
  %137 = load i32, ptr %14, align 4
  %138 = lshr i32 %137, 3
  %139 = and i32 %138, 31
  %140 = add i32 %136, %139
  %141 = trunc i32 %140 to i16
  %142 = load ptr, ptr %7, align 8
  store i16 %141, ptr %142, align 2
  br label %179

143:                                              ; preds = %126
  call void @llvm.lifetime.start.p0(i64 4, ptr %15) #3
  %144 = load ptr, ptr %7, align 8
  %145 = load i16, ptr %144, align 2
  %146 = zext i16 %145 to i32
  store i32 %146, ptr %15, align 4
  %147 = load i32, ptr %14, align 4
  %148 = and i32 %147, 63488
  %149 = shl i32 %148, 10
  %150 = load i32, ptr %14, align 4
  %151 = lshr i32 %150, 9
  %152 = and i32 %151, 31744
  %153 = add i32 %149, %152
  %154 = load i32, ptr %14, align 4
  %155 = lshr i32 %154, 3
  %156 = and i32 %155, 31
  %157 = add i32 %153, %156
  store i32 %157, ptr %14, align 4
  %158 = load i32, ptr %15, align 4
  %159 = load i32, ptr %15, align 4
  %160 = shl i32 %159, 16
  %161 = or i32 %158, %160
  %162 = and i32 %161, 65043487
  store i32 %162, ptr %15, align 4
  %163 = load i32, ptr %14, align 4
  %164 = load i32, ptr %15, align 4
  %165 = sub i32 %163, %164
  %166 = load i32, ptr %13, align 4
  %167 = mul i32 %165, %166
  %168 = lshr i32 %167, 5
  %169 = load i32, ptr %15, align 4
  %170 = add i32 %169, %168
  store i32 %170, ptr %15, align 4
  %171 = load i32, ptr %15, align 4
  %172 = and i32 %171, 65043487
  store i32 %172, ptr %15, align 4
  %173 = load i32, ptr %15, align 4
  %174 = load i32, ptr %15, align 4
  %175 = lshr i32 %174, 16
  %176 = or i32 %173, %175
  %177 = trunc i32 %176 to i16
  %178 = load ptr, ptr %7, align 8
  store i16 %177, ptr %178, align 2
  call void @llvm.lifetime.end.p0(i64 4, ptr %15) #3
  br label %179

179:                                              ; preds = %143, %129
  br label %180

180:                                              ; preds = %179, %119
  %181 = load ptr, ptr %5, align 8
  %182 = getelementptr inbounds nuw i32, ptr %181, i32 1
  store ptr %182, ptr %5, align 8
  %183 = load ptr, ptr %7, align 8
  %184 = getelementptr inbounds nuw i16, ptr %183, i32 1
  store ptr %184, ptr %7, align 8
  call void @llvm.lifetime.end.p0(i64 4, ptr %14) #3
  call void @llvm.lifetime.end.p0(i64 4, ptr %13) #3
  br label %185

185:                                              ; preds = %46, %180
  call void @llvm.lifetime.start.p0(i64 4, ptr %16) #3
  call void @llvm.lifetime.start.p0(i64 4, ptr %17) #3
  %186 = load ptr, ptr %5, align 8
  %187 = load i32, ptr %186, align 4
  store i32 %187, ptr %17, align 4
  %188 = load i32, ptr %17, align 4
  %189 = lshr i32 %188, 27
  store i32 %189, ptr %16, align 4
  %190 = load i32, ptr %16, align 4
  %191 = icmp ne i32 %190, 0
  br i1 %191, label %192, label %246

192:                                              ; preds = %185
  %193 = load i32, ptr %16, align 4
  %194 = icmp eq i32 %193, 31
  br i1 %194, label %195, label %209

195:                                              ; preds = %192
  %196 = load i32, ptr %17, align 4
  %197 = lshr i32 %196, 9
  %198 = and i32 %197, 31744
  %199 = load i32, ptr %17, align 4
  %200 = lshr i32 %199, 6
  %201 = and i32 %200, 992
  %202 = add i32 %198, %201
  %203 = load i32, ptr %17, align 4
  %204 = lshr i32 %203, 3
  %205 = and i32 %204, 31
  %206 = add i32 %202, %205
  %207 = trunc i32 %206 to i16
  %208 = load ptr, ptr %7, align 8
  store i16 %207, ptr %208, align 2
  br label %245

209:                                              ; preds = %192
  call void @llvm.lifetime.start.p0(i64 4, ptr %18) #3
  %210 = load ptr, ptr %7, align 8
  %211 = load i16, ptr %210, align 2
  %212 = zext i16 %211 to i32
  store i32 %212, ptr %18, align 4
  %213 = load i32, ptr %17, align 4
  %214 = and i32 %213, 63488
  %215 = shl i32 %214, 10
  %216 = load i32, ptr %17, align 4
  %217 = lshr i32 %216, 9
  %218 = and i32 %217, 31744
  %219 = add i32 %215, %218
  %220 = load i32, ptr %17, align 4
  %221 = lshr i32 %220, 3
  %222 = and i32 %221, 31
  %223 = add i32 %219, %222
  store i32 %223, ptr %17, align 4
  %224 = load i32, ptr %18, align 4
  %225 = load i32, ptr %18, align 4
  %226 = shl i32 %225, 16
  %227 = or i32 %224, %226
  %228 = and i32 %227, 65043487
  store i32 %228, ptr %18, align 4
  %229 = load i32, ptr %17, align 4
  %230 = load i32, ptr %18, align 4
  %231 = sub i32 %229, %230
  %232 = load i32, ptr %16, align 4
  %233 = mul i32 %231, %232
  %234 = lshr i32 %233, 5
  %235 = load i32, ptr %18, align 4
  %236 = add i32 %235, %234
  store i32 %236, ptr %18, align 4
  %237 = load i32, ptr %18, align 4
  %238 = and i32 %237, 65043487
  store i32 %238, ptr %18, align 4
  %239 = load i32, ptr %18, align 4
  %240 = load i32, ptr %18, align 4
  %241 = lshr i32 %240, 16
  %242 = or i32 %239, %241
  %243 = trunc i32 %242 to i16
  %244 = load ptr, ptr %7, align 8
  store i16 %243, ptr %244, align 2
  call void @llvm.lifetime.end.p0(i64 4, ptr %18) #3
  br label %245

245:                                              ; preds = %209, %195
  br label %246

246:                                              ; preds = %245, %185
  %247 = load ptr, ptr %5, align 8
  %248 = getelementptr inbounds nuw i32, ptr %247, i32 1
  store ptr %248, ptr %5, align 8
  %249 = load ptr, ptr %7, align 8
  %250 = getelementptr inbounds nuw i16, ptr %249, i32 1
  store ptr %250, ptr %7, align 8
  call void @llvm.lifetime.end.p0(i64 4, ptr %17) #3
  call void @llvm.lifetime.end.p0(i64 4, ptr %16) #3
  br label %251

251:                                              ; preds = %46, %246
  call void @llvm.lifetime.start.p0(i64 4, ptr %19) #3
  call void @llvm.lifetime.start.p0(i64 4, ptr %20) #3
  %252 = load ptr, ptr %5, align 8
  %253 = load i32, ptr %252, align 4
  store i32 %253, ptr %20, align 4
  %254 = load i32, ptr %20, align 4
  %255 = lshr i32 %254, 27
  store i32 %255, ptr %19, align 4
  %256 = load i32, ptr %19, align 4
  %257 = icmp ne i32 %256, 0
  br i1 %257, label %258, label %312

258:                                              ; preds = %251
  %259 = load i32, ptr %19, align 4
  %260 = icmp eq i32 %259, 31
  br i1 %260, label %261, label %275

261:                                              ; preds = %258
  %262 = load i32, ptr %20, align 4
  %263 = lshr i32 %262, 9
  %264 = and i32 %263, 31744
  %265 = load i32, ptr %20, align 4
  %266 = lshr i32 %265, 6
  %267 = and i32 %266, 992
  %268 = add i32 %264, %267
  %269 = load i32, ptr %20, align 4
  %270 = lshr i32 %269, 3
  %271 = and i32 %270, 31
  %272 = add i32 %268, %271
  %273 = trunc i32 %272 to i16
  %274 = load ptr, ptr %7, align 8
  store i16 %273, ptr %274, align 2
  br label %311

275:                                              ; preds = %258
  call void @llvm.lifetime.start.p0(i64 4, ptr %21) #3
  %276 = load ptr, ptr %7, align 8
  %277 = load i16, ptr %276, align 2
  %278 = zext i16 %277 to i32
  store i32 %278, ptr %21, align 4
  %279 = load i32, ptr %20, align 4
  %280 = and i32 %279, 63488
  %281 = shl i32 %280, 10
  %282 = load i32, ptr %20, align 4
  %283 = lshr i32 %282, 9
  %284 = and i32 %283, 31744
  %285 = add i32 %281, %284
  %286 = load i32, ptr %20, align 4
  %287 = lshr i32 %286, 3
  %288 = and i32 %287, 31
  %289 = add i32 %285, %288
  store i32 %289, ptr %20, align 4
  %290 = load i32, ptr %21, align 4
  %291 = load i32, ptr %21, align 4
  %292 = shl i32 %291, 16
  %293 = or i32 %290, %292
  %294 = and i32 %293, 65043487
  store i32 %294, ptr %21, align 4
  %295 = load i32, ptr %20, align 4
  %296 = load i32, ptr %21, align 4
  %297 = sub i32 %295, %296
  %298 = load i32, ptr %19, align 4
  %299 = mul i32 %297, %298
  %300 = lshr i32 %299, 5
  %301 = load i32, ptr %21, align 4
  %302 = add i32 %301, %300
  store i32 %302, ptr %21, align 4
  %303 = load i32, ptr %21, align 4
  %304 = and i32 %303, 65043487
  store i32 %304, ptr %21, align 4
  %305 = load i32, ptr %21, align 4
  %306 = load i32, ptr %21, align 4
  %307 = lshr i32 %306, 16
  %308 = or i32 %305, %307
  %309 = trunc i32 %308 to i16
  %310 = load ptr, ptr %7, align 8
  store i16 %309, ptr %310, align 2
  call void @llvm.lifetime.end.p0(i64 4, ptr %21) #3
  br label %311

311:                                              ; preds = %275, %261
  br label %312

312:                                              ; preds = %311, %251
  %313 = load ptr, ptr %5, align 8
  %314 = getelementptr inbounds nuw i32, ptr %313, i32 1
  store ptr %314, ptr %5, align 8
  %315 = load ptr, ptr %7, align 8
  %316 = getelementptr inbounds nuw i16, ptr %315, i32 1
  store ptr %316, ptr %7, align 8
  call void @llvm.lifetime.end.p0(i64 4, ptr %20) #3
  call void @llvm.lifetime.end.p0(i64 4, ptr %19) #3
  br label %317

317:                                              ; preds = %312
  %318 = load i32, ptr %9, align 4
  %319 = add nsw i32 %318, -1
  store i32 %319, ptr %9, align 4
  %320 = icmp sgt i32 %319, 0
  br i1 %320, label %53, label %321, !llvm.loop !10

321:                                              ; preds = %317
  br label %322

322:                                              ; preds = %321, %46
  call void @llvm.lifetime.end.p0(i64 4, ptr %9) #3
  %323 = load i32, ptr %6, align 4
  %324 = load ptr, ptr %5, align 8
  %325 = sext i32 %323 to i64
  %326 = getelementptr inbounds i32, ptr %324, i64 %325
  store ptr %326, ptr %5, align 8
  %327 = load i32, ptr %8, align 4
  %328 = load ptr, ptr %7, align 8
  %329 = sext i32 %327 to i64
  %330 = getelementptr inbounds i16, ptr %328, i64 %329
  store ptr %330, ptr %7, align 8
  br label %42, !llvm.loop !11

331:                                              ; preds = %42
  call void @llvm.lifetime.end.p0(i64 4, ptr %8) #3
  call void @llvm.lifetime.end.p0(i64 8, ptr %7) #3
  call void @llvm.lifetime.end.p0(i64 4, ptr %6) #3
  call void @llvm.lifetime.end.p0(i64 8, ptr %5) #3
  call void @llvm.lifetime.end.p0(i64 4, ptr %4) #3
  call void @llvm.lifetime.end.p0(i64 4, ptr %3) #3
  ret void
}